(dp0
S'beta'
p1
(dp2
S'ses:Minority[T.Y]'
p3
cnumpy.core.multiarray
scalar
p4
(cnumpy
dtype
p5
(S'f8'
p6
I0
I1
tp7
Rp8
(I3
S'<'
p9
NNNI-1
I-1
I0
tp10
bS'\xd6\x88\xad?#\x1a\x8b?'
p11
tp12
Rp13
sS'Minority[T.Y]'
p14
g4
(g8
S'9C$\xe7\x00\x9e\xdb?'
p15
tp16
Rp17
sS'Intercept'
p18
g4
(g8
S'\x84\x0e\xce\xa8\x9c$\xdc\xbf'
p19
tp20
Rp21
sS'ses'
p22
g4
(g8
S'1Q\xbb\x84\xfe\x84\xae\xbf'
p23
tp24
Rp25
ssS'b'
p26
(dp27
S'0'
p28
(dp29
S'216'
p30
cnumpy.core.multiarray
_reconstruct
p31
(cnumpy
ndarray
p32
(I0
tp33
g26
tp34
Rp35
(I1
(I1
tp36
g8
I00
S'*\x92\xae\xfa\xae\xf7{?'
p37
tp38
bsS'217'
p39
g31
(g32
(I0
tp40
g26
tp41
Rp42
(I1
(I1
tp43
g8
I00
S'\x9a%\xbe\x9a\x85\x01\xc2\xbf'
p44
tp45
bsS'214'
p46
g31
(g32
(I0
tp47
g26
tp48
Rp49
(I1
(I1
tp50
g8
I00
S'oh\x8c\xc1\xbb`\xc0?'
p51
tp52
bsS'215'
p53
g31
(g32
(I0
tp54
g26
tp55
Rp56
(I1
(I1
tp57
g8
I00
S'7\xce\x9c\xc8\xd3\xfb\xb7\xbf'
p58
tp59
bsS'212'
p60
g31
(g32
(I0
tp61
g26
tp62
Rp63
(I1
(I1
tp64
g8
I00
S'\x97\x16n\x84U>\xd3\xbf'
p65
tp66
bsS'210'
p67
g31
(g32
(I0
tp68
g26
tp69
Rp70
(I1
(I1
tp71
g8
I00
S'o\x81\xfd\xb7\xd6\x99\xc1\xbf'
p72
tp73
bsS'218'
p74
g31
(g32
(I0
tp75
g26
tp76
Rp77
(I1
(I1
tp78
g8
I00
S')d\xf6~\x92\xd4}?'
p79
tp80
bsS'219'
p81
g31
(g32
(I0
tp82
g26
tp83
Rp84
(I1
(I1
tp85
g8
I00
S'\x8f\xb0\x15:;q\xd1\xbf'
p86
tp87
bsS'132'
p88
g31
(g32
(I0
tp89
g26
tp90
Rp91
(I1
(I1
tp92
g8
I00
S'\x9b\x9a[\xb8%\x11\xc8?'
p93
tp94
bsS'130'
p95
g31
(g32
(I0
tp96
g26
tp97
Rp98
(I1
(I1
tp99
g8
I00
S'\x8aT\x90Z5\xc8\xd2?'
p100
tp101
bsS'137'
p102
g31
(g32
(I0
tp103
g26
tp104
Rp105
(I1
(I1
tp106
g8
I00
S'\x05q\xe5\xcdn*\x91?'
p107
tp108
bsS'136'
p109
g31
(g32
(I0
tp110
g26
tp111
Rp112
(I1
(I1
tp113
g8
I00
S'X1\xee|\xed\xd7\xc9\xbf'
p114
tp115
bsS'90'
p116
g31
(g32
(I0
tp117
g26
tp118
Rp119
(I1
(I1
tp120
g8
I00
S'\xd4\xcdY\x8f\xb8)\xc2\xbf'
p121
tp122
bsS'24'
p123
g31
(g32
(I0
tp124
g26
tp125
Rp126
(I1
(I1
tp127
g8
I00
S'\xc0\xc94Y\x0e6\xd0\xbf'
p128
tp129
bsS'250'
p130
g31
(g32
(I0
tp131
g26
tp132
Rp133
(I1
(I1
tp134
g8
I00
S'7\xb4\xee\x8e8\xfb\xb2\xbf'
p135
tp136
bsS'224'
p137
g31
(g32
(I0
tp138
g26
tp139
Rp140
(I1
(I1
tp141
g8
I00
S'\xb4\xe0\xbd\x7f\xf6\xb8\xc5\xbf'
p142
tp143
bsS'21'
p144
g31
(g32
(I0
tp145
g26
tp146
Rp147
(I1
(I1
tp148
g8
I00
S'[\\\xe6\x0b=\x87\xa3?'
p149
tp150
bsS'95'
p151
g31
(g32
(I0
tp152
g26
tp153
Rp154
(I1
(I1
tp155
g8
I00
S'tJ\xe3[\x1bO\xce?'
p156
tp157
bsS'29'
p158
g31
(g32
(I0
tp159
g26
tp160
Rp161
(I1
(I1
tp162
g8
I00
S']\xc8\t0\x00\xa5\xb0?'
p163
tp164
bsS'161'
p165
g31
(g32
(I0
tp166
g26
tp167
Rp168
(I1
(I1
tp169
g8
I00
S'\xe7\x19\xbd\x90\xd9<\xd0?'
p170
tp171
bsS'68'
p172
g31
(g32
(I0
tp173
g26
tp174
Rp175
(I1
(I1
tp176
g8
I00
S'\xc6\xf2\r\x17\xdd\x16\xd6\xbf'
p177
tp178
bsS'87'
p179
g31
(g32
(I0
tp180
g26
tp181
Rp182
(I1
(I1
tp183
g8
I00
S'\xfb\x07\x07\x17h\xa4\xc4?'
p184
tp185
bsS'121'
p186
g31
(g32
(I0
tp187
g26
tp188
Rp189
(I1
(I1
tp190
g8
I00
S'p)\x9f\x99\xc1\xd8s\xbf'
p191
tp192
bsS'123'
p193
g31
(g32
(I0
tp194
g26
tp195
Rp196
(I1
(I1
tp197
g8
I00
S'i\x1e\xfc\x9ch\xd3\xd0?'
p198
tp199
bsS'124'
p200
g31
(g32
(I0
tp201
g26
tp202
Rp203
(I1
(I1
tp204
g8
I00
S'\xcd\x8e\x985\xae\x8d\xad\xbf'
p205
tp206
bsS'125'
p207
g31
(g32
(I0
tp208
g26
tp209
Rp210
(I1
(I1
tp211
g8
I00
S'\x1e\xb4\xa3@\xd7O\x80?'
p212
tp213
bsS'55'
p214
g31
(g32
(I0
tp215
g26
tp216
Rp217
(I1
(I1
tp218
g8
I00
S'\x9c\xb8K\xd5C\xce\xdd?'
p219
tp220
bsS'54'
p221
g31
(g32
(I0
tp222
g26
tp223
Rp224
(I1
(I1
tp225
g8
I00
S'=\xad\xd7\xcae8\x8d?'
p226
tp227
bsS'57'
p228
g31
(g32
(I0
tp229
g26
tp230
Rp231
(I1
(I1
tp232
g8
I00
S'\xd7\x94\xdbA\xb1\x9a\x97?'
p233
tp234
bsS'62'
p235
g31
(g32
(I0
tp236
g26
tp237
Rp238
(I1
(I1
tp239
g8
I00
S'\\\xc7\xad\x142\xab\xc8\xbf'
p240
tp241
bsS'52'
p242
g31
(g32
(I0
tp243
g26
tp244
Rp245
(I1
(I1
tp246
g8
I00
S'\x8b\xd2x\xc6\xb4\xc1\xc5?'
p247
tp248
bsS'164'
p249
g31
(g32
(I0
tp250
g26
tp251
Rp252
(I1
(I1
tp253
g8
I00
S'\x8c\xc2\xafR\xce\xc8\xc4\xbf'
p254
tp255
bsS'199'
p256
g31
(g32
(I0
tp257
g26
tp258
Rp259
(I1
(I1
tp260
g8
I00
S'\x9df5\x89\xff[\xbe\xbf'
p261
tp262
bsS'198'
p263
g31
(g32
(I0
tp264
g26
tp265
Rp266
(I1
(I1
tp267
g8
I00
S"\x95'\xd470\xa3\xa4\xbf"
p268
tp269
bsS'195'
p270
g31
(g32
(I0
tp271
g26
tp272
Rp273
(I1
(I1
tp274
g8
I00
S'\x1dE{\xd5S\xbd\xb6?'
p275
tp276
bsS'197'
p277
g31
(g32
(I0
tp278
g26
tp279
Rp280
(I1
(I1
tp281
g8
I00
S'6D\x19\x98\x10\xbc\xc2\xbf'
p282
tp283
bsS'196'
p284
g31
(g32
(I0
tp285
g26
tp286
Rp287
(I1
(I1
tp288
g8
I00
S'M\xf6k\x00\xd8Q\xe2?'
p289
tp290
bsS'193'
p291
g31
(g32
(I0
tp292
g26
tp293
Rp294
(I1
(I1
tp295
g8
I00
S'\x02%?\xaeC\xf2\xb2\xbf'
p296
tp297
bsS'192'
p298
g31
(g32
(I0
tp299
g26
tp300
Rp301
(I1
(I1
tp302
g8
I00
S'\x03\x9b\xc3m\xfb\xb7\xd6?'
p303
tp304
bsS'115'
p305
g31
(g32
(I0
tp306
g26
tp307
Rp308
(I1
(I1
tp309
g8
I00
S'\xeb8m\xa7N9\xa0?'
p310
tp311
bsS'252'
p312
g31
(g32
(I0
tp313
g26
tp314
Rp315
(I1
(I1
tp316
g8
I00
S'hsw1W\xad\xad\xbf'
p317
tp318
bsS'88'
p319
g31
(g32
(I0
tp320
g26
tp321
Rp322
(I1
(I1
tp323
g8
I00
S'\xec0)oK\x15\xbf?'
p324
tp325
bsS'116'
p326
g31
(g32
(I0
tp327
g26
tp328
Rp329
(I1
(I1
tp330
g8
I00
S"'4\xc6CD\xfb\xdf?"
p331
tp332
bsS'111'
p333
g31
(g32
(I0
tp334
g26
tp335
Rp336
(I1
(I1
tp337
g8
I00
S')a\x91\xa3\xea\x98b?'
p338
tp339
bsS'110'
p340
g31
(g32
(I0
tp341
g26
tp342
Rp343
(I1
(I1
tp344
g8
I00
S'\xd7\xda.Z\x1fI\xb2?'
p345
tp346
bsS'112'
p347
g31
(g32
(I0
tp348
g26
tp349
Rp350
(I1
(I1
tp351
g8
I00
S'\t2\x8a(\xd4\xb8\xc0\xbf'
p352
tp353
bsS'80'
p354
g31
(g32
(I0
tp355
g26
tp356
Rp357
(I1
(I1
tp358
g8
I00
S'\xa2\x16_\x9eS\x9e\xbd?'
p359
tp360
bsS'119'
p361
g31
(g32
(I0
tp362
g26
tp363
Rp364
(I1
(I1
tp365
g8
I00
S'\x0bsm\x13\x87\x0b\xd0?'
p366
tp367
bsS'118'
p368
g31
(g32
(I0
tp369
g26
tp370
Rp371
(I1
(I1
tp372
g8
I00
S'\\p\xf4\x01p\xed\xc3\xbf'
p373
tp374
bsS'141'
p375
g31
(g32
(I0
tp376
g26
tp377
Rp378
(I1
(I1
tp379
g8
I00
S's=\x9c\xc7\x85\xaf\xd0?'
p380
tp381
bsS'27'
p382
g31
(g32
(I0
tp383
g26
tp384
Rp385
(I1
(I1
tp386
g8
I00
S'\x8b]\x89Oyn\xa0\xbf'
p387
tp388
bsS'26'
p389
g31
(g32
(I0
tp390
g26
tp391
Rp392
(I1
(I1
tp393
g8
I00
S'\xab\xd9\xdaP\xef\x1a\xa0?'
p394
tp395
bsS'244'
p396
g31
(g32
(I0
tp397
g26
tp398
Rp399
(I1
(I1
tp400
g8
I00
S'\x05\xebl\x1f\xf4\xff\xc1\xbf'
p401
tp402
bsS'108'
p403
g31
(g32
(I0
tp404
g26
tp405
Rp406
(I1
(I1
tp407
g8
I00
S'\x92\x94"\xac\xfc\xe5\xbd\xbf'
p408
tp409
bsS'109'
p410
g31
(g32
(I0
tp411
g26
tp412
Rp413
(I1
(I1
tp414
g8
I00
S'\xa4\x12\xe6-\xa0\xcf\xc5\xbf'
p415
tp416
bsS'241'
p417
g31
(g32
(I0
tp418
g26
tp419
Rp420
(I1
(I1
tp421
g8
I00
S'\xf4\xbbir\xa4\xa0\xd2\xbf'
p422
tp423
bsS'240'
p424
g31
(g32
(I0
tp425
g26
tp426
Rp427
(I1
(I1
tp428
g8
I00
S'\xbb\xb7\xd280\xef\xc6\xbf'
p429
tp430
bsS'243'
p431
g31
(g32
(I0
tp432
g26
tp433
Rp434
(I1
(I1
tp435
g8
I00
S'\x85k\x1c\x8b\x1c \x95\xbf'
p436
tp437
bsS'242'
p438
g31
(g32
(I0
tp439
g26
tp440
Rp441
(I1
(I1
tp442
g8
I00
S'\\\x8dwn\x99\xdc\xc2\xbf'
p443
tp444
bsS'103'
p445
g31
(g32
(I0
tp446
g26
tp447
Rp448
(I1
(I1
tp449
g8
I00
S'=Vck\x16\x07\xce?'
p450
tp451
bsS'101'
p452
g31
(g32
(I0
tp453
g26
tp454
Rp455
(I1
(I1
tp456
g8
I00
S'\x84.)\xfd\x047\xca\xbf'
p457
tp458
bsS'106'
p459
g31
(g32
(I0
tp460
g26
tp461
Rp462
(I1
(I1
tp463
g8
I00
S'\x864$\x1e\xf2|\xc7\xbf'
p464
tp465
bsS'107'
p466
g31
(g32
(I0
tp467
g26
tp468
Rp469
(I1
(I1
tp470
g8
I00
S'\xb0\xf2\xfexj\xe1\x95\xbf'
p471
tp472
bsS'38'
p473
g31
(g32
(I0
tp474
g26
tp475
Rp476
(I1
(I1
tp477
g8
I00
S'1\x9d\x92a\xd1{\xc5?'
p478
tp479
bsS'33'
p480
g31
(g32
(I0
tp481
g26
tp482
Rp483
(I1
(I1
tp484
g8
I00
S',\xe6\xde*\x90\x9e\x97?'
p485
tp486
bsS'36'
p487
g31
(g32
(I0
tp488
g26
tp489
Rp490
(I1
(I1
tp491
g8
I00
S'\xdc\x1cJ\x8eHA\x9d\xbf'
p492
tp493
bsS'35'
p494
g31
(g32
(I0
tp495
g26
tp496
Rp497
(I1
(I1
tp498
g8
I00
S'\xa2\x93.W\xa4X\xac\xbf'
p499
tp500
bsS'246'
p501
g31
(g32
(I0
tp502
g26
tp503
Rp504
(I1
(I1
tp505
g8
I00
S'S\xf7\xb1\x1b\x06\xc3\x9c?'
p506
tp507
bsS'94'
p508
g31
(g32
(I0
tp509
g26
tp510
Rp511
(I1
(I1
tp512
g8
I00
S"i7\x1d\x1d'\xfc\xaf?"
p513
tp514
bsS'86'
p515
g31
(g32
(I0
tp516
g26
tp517
Rp518
(I1
(I1
tp519
g8
I00
S'V\xeb\xdc\xa9:\xfe\x90?'
p520
tp521
bsS'60'
p522
g31
(g32
(I0
tp523
g26
tp524
Rp525
(I1
(I1
tp526
g8
I00
S'\x0f\xf7\xc2#\xff\x91\xb4\xbf'
p527
tp528
bsS'61'
p529
g31
(g32
(I0
tp530
g26
tp531
Rp532
(I1
(I1
tp533
g8
I00
S'\x8aH\xa3~3\xae\xbe?'
p534
tp535
bsS'258'
p536
g31
(g32
(I0
tp537
g26
tp538
Rp539
(I1
(I1
tp540
g8
I00
S'\x143\xb8\xa2\x92\xdb\xb7?'
p541
tp542
bsS'65'
p543
g31
(g32
(I0
tp544
g26
tp545
Rp546
(I1
(I1
tp547
g8
I00
S'\\\xef\xc6\xa3\x84\xa0\xc5\xbf'
p548
tp549
bsS'179'
p550
g31
(g32
(I0
tp551
g26
tp552
Rp553
(I1
(I1
tp554
g8
I00
S'\xd8wr1{;\xac?'
p555
tp556
bsS'67'
p557
g31
(g32
(I0
tp558
g26
tp559
Rp560
(I1
(I1
tp561
g8
I00
S'{\xa34\xcf\x17\x9b\xb7\xbf'
p562
tp563
bsS'177'
p564
g31
(g32
(I0
tp565
g26
tp566
Rp567
(I1
(I1
tp568
g8
I00
S'\xef\x85\xeb\xef\xf6b\xaa\xbf'
p569
tp570
bsS'176'
p571
g31
(g32
(I0
tp572
g26
tp573
Rp574
(I1
(I1
tp575
g8
I00
S'R\xdf\r\x83\xca\xa5]\xbf'
p576
tp577
bsS'175'
p578
g31
(g32
(I0
tp579
g26
tp580
Rp581
(I1
(I1
tp582
g8
I00
S'\xce8m\x8f\x19P\xcb?'
p583
tp584
bsS'256'
p585
g31
(g32
(I0
tp586
g26
tp587
Rp588
(I1
(I1
tp589
g8
I00
S'\x19^,\x0c\xb8\xe9\xcc\xbf'
p590
tp591
bsS'170'
p592
g31
(g32
(I0
tp593
g26
tp594
Rp595
(I1
(I1
tp596
g8
I00
S'?\xc4e/\xf3U\xdc\xbf'
p597
tp598
bsS'249'
p599
g31
(g32
(I0
tp600
g26
tp601
Rp602
(I1
(I1
tp603
g8
I00
S'M\x00\x9dgnY\xc4\xbf'
p604
tp605
bsS'182'
p606
g31
(g32
(I0
tp607
g26
tp608
Rp609
(I1
(I1
tp610
g8
I00
S'3Z\xdd\xf4W\xab\xc2\xbf'
p611
tp612
bsS'183'
p613
g31
(g32
(I0
tp614
g26
tp615
Rp616
(I1
(I1
tp617
g8
I00
S'(\x06J\xd7\xba:\xbc\xbf'
p618
tp619
bsS'2'
p620
g31
(g32
(I0
tp621
g26
tp622
Rp623
(I1
(I1
tp624
g8
I00
S'\x05\xffv\x15\xdd\xd8\xc5?'
p625
tp626
bsS'184'
p627
g31
(g32
(I0
tp628
g26
tp629
Rp630
(I1
(I1
tp631
g8
I00
S'%\x10\xf2\xd3\xc2k\xc7?'
p632
tp633
bsS'188'
p634
g31
(g32
(I0
tp635
g26
tp636
Rp637
(I1
(I1
tp638
g8
I00
S'\xfc<\xaa\xca\x8c^\xc1?'
p639
tp640
bsS'189'
p641
g31
(g32
(I0
tp642
g26
tp643
Rp644
(I1
(I1
tp645
g8
I00
S'\xd4R\x08\xc1\xb6\x1b\xc6?'
p646
tp647
bsS'98'
p648
g31
(g32
(I0
tp649
g26
tp650
Rp651
(I1
(I1
tp652
g8
I00
S'w\xfb\xc6\xfc\xfb9\xb8?'
p653
tp654
bsS'228'
p655
g31
(g32
(I0
tp656
g26
tp657
Rp658
(I1
(I1
tp659
g8
I00
S'\x81\x9a\xf8>\x96\xa5\xc4\xbf'
p660
tp661
bsS'227'
p662
g31
(g32
(I0
tp663
g26
tp664
Rp665
(I1
(I1
tp666
g8
I00
S'u\xf8\xdek\x12\x04\xbb\xbf'
p667
tp668
bsS'226'
p669
g31
(g32
(I0
tp670
g26
tp671
Rp672
(I1
(I1
tp673
g8
I00
S'\xa5Nj\xb6\x14\xdf\xc2?'
p674
tp675
bsS'167'
p676
g31
(g32
(I0
tp677
g26
tp678
Rp679
(I1
(I1
tp680
g8
I00
S'\xd6\xa2\xdb\r\xb5\xa3k\xbf'
p681
tp682
bsS'160'
p683
g31
(g32
(I0
tp684
g26
tp685
Rp686
(I1
(I1
tp687
g8
I00
S'\xe8\x02K\xe9\xb8\xbe\xc5?'
p688
tp689
bsS'222'
p690
g31
(g32
(I0
tp691
g26
tp692
Rp693
(I1
(I1
tp694
g8
I00
S'\xe2\x85f50t\xd2?'
p695
tp696
bsS'97'
p697
g31
(g32
(I0
tp698
g26
tp699
Rp700
(I1
(I1
tp701
g8
I00
S'\x07$z(w\xe5\xc6\xbf'
p702
tp703
bsS'10'
p704
g31
(g32
(I0
tp705
g26
tp706
Rp707
(I1
(I1
tp708
g8
I00
S'\xd6\x96(\xf0\xb7\xea\xbc\xbf'
p709
tp710
bsS'12'
p711
g31
(g32
(I0
tp712
g26
tp713
Rp714
(I1
(I1
tp715
g8
I00
S'\xc8H\xe6~"\r\xc9\xbf'
p716
tp717
bsS'15'
p718
g31
(g32
(I0
tp719
g26
tp720
Rp721
(I1
(I1
tp722
g8
I00
S'\xa0\xe3\xddV\xf3P\xc1?'
p723
tp724
bsS'66'
p725
g31
(g32
(I0
tp726
g26
tp727
Rp728
(I1
(I1
tp729
g8
I00
S"{\xc2'y\xa2\xce\xe2?"
p730
tp731
bsS'16'
p732
g31
(g32
(I0
tp733
g26
tp734
Rp735
(I1
(I1
tp736
g8
I00
S'\xc7X\x96n\x926\x96?'
p737
tp738
bsS'18'
p739
g31
(g32
(I0
tp740
g26
tp741
Rp742
(I1
(I1
tp743
g8
I00
S'\x92\xa7\x95\x91\xf4\xe7\xc3\xbf'
p744
tp745
bsS'151'
p746
g31
(g32
(I0
tp747
g26
tp748
Rp749
(I1
(I1
tp750
g8
I00
S'\x84\xa2\x03\xa8\xfe\xc4z\xbf'
p751
tp752
bsS'150'
p753
g31
(g32
(I0
tp754
g26
tp755
Rp756
(I1
(I1
tp757
g8
I00
S'A}5\x8bv\x19\xc5?'
p758
tp759
bsS'152'
p760
g31
(g32
(I0
tp761
g26
tp762
Rp763
(I1
(I1
tp764
g8
I00
S'\xf6E\xc6X5\xd1D\xbf'
p765
tp766
bsS'155'
p767
g31
(g32
(I0
tp768
g26
tp769
Rp770
(I1
(I1
tp771
g8
I00
S'""\xfa\xa56\xcd\xba?'
p772
tp773
bsS'156'
p774
g31
(g32
(I0
tp775
g26
tp776
Rp777
(I1
(I1
tp778
g8
I00
S'\x98\x19\xcem}\xf5\x81?'
p779
tp780
bsS'159'
p781
g31
(g32
(I0
tp782
g26
tp783
Rp784
(I1
(I1
tp785
g8
I00
S'\xb4\x83T\xb9\xa4\x8d\x84?'
p786
tp787
bsS'234'
p788
g31
(g32
(I0
tp789
g26
tp790
Rp791
(I1
(I1
tp792
g8
I00
S'\x80\xa5\xb7\x84OE\xa3\xbf'
p793
tp794
bsS'235'
p795
g31
(g32
(I0
tp796
g26
tp797
Rp798
(I1
(I1
tp799
g8
I00
S'\x8fQi\xb9\xe6\xcf\xb4?'
p800
tp801
bsS'237'
p802
g31
(g32
(I0
tp803
g26
tp804
Rp805
(I1
(I1
tp806
g8
I00
S'\xed\x8d\xfc\xaa\xcaW\x90\xbf'
p807
tp808
bsS'231'
p809
g31
(g32
(I0
tp810
g26
tp811
Rp812
(I1
(I1
tp813
g8
I00
S'|\x941\xe3:\xf8\xd2\xbf'
p814
tp815
bsS'233'
p816
g31
(g32
(I0
tp817
g26
tp818
Rp819
(I1
(I1
tp820
g8
I00
S'\xa5\x04\xcc\xf6\xd7\xa0\xc0\xbf'
p821
tp822
bsS'48'
p823
g31
(g32
(I0
tp824
g26
tp825
Rp826
(I1
(I1
tp827
g8
I00
S'\x18\x07|D\xed\xe8\xc5?'
p828
tp829
bsS'49'
p830
g31
(g32
(I0
tp831
g26
tp832
Rp833
(I1
(I1
tp834
g8
I00
S'\xb0\xceg\x0b\xb3\x0f\xa3\xbf'
p835
tp836
bsS'47'
p837
g31
(g32
(I0
tp838
g26
tp839
Rp840
(I1
(I1
tp841
g8
I00
S'\xa3/\xed\xf3&\xa1\xce?'
p842
tp843
bsS'44'
p844
g31
(g32
(I0
tp845
g26
tp846
Rp847
(I1
(I1
tp848
g8
I00
S'"\xc1\x08\xbbJ\xdf\xb6\xbf'
p849
tp850
bsS'42'
p851
g31
(g32
(I0
tp852
g26
tp853
Rp854
(I1
(I1
tp855
g8
I00
S'G\x8evn\xf6\xaa\xa6\xbf'
p856
tp857
bsS'40'
p858
g31
(g32
(I0
tp859
g26
tp860
Rp861
(I1
(I1
tp862
g8
I00
S' \xdf]Sup\xab\xbf'
p863
tp864
bsS'41'
p865
g31
(g32
(I0
tp866
g26
tp867
Rp868
(I1
(I1
tp869
g8
I00
S'T\x103H\xc0(\xc8\xbf'
p870
tp871
bsS'1'
p872
g31
(g32
(I0
tp873
g26
tp874
Rp875
(I1
(I1
tp876
g8
I00
S'\xba\xf2\x07\x13Y\x03\xd8\xbf'
p877
tp878
bsS'147'
p879
g31
(g32
(I0
tp880
g26
tp881
Rp882
(I1
(I1
tp883
g8
I00
S'<\x98\x11!@\xf3\xcb\xbf'
p884
tp885
bsS'142'
p886
g31
(g32
(I0
tp887
g26
tp888
Rp889
(I1
(I1
tp890
g8
I00
S'pi\x03x\xdb\xdd\xba?'
p891
tp892
bsS'204'
p893
g31
(g32
(I0
tp894
g26
tp895
Rp896
(I1
(I1
tp897
g8
I00
S'C\x07v\xbc-\x9e\xa3?'
p898
tp899
bsS'206'
p900
g31
(g32
(I0
tp901
g26
tp902
Rp903
(I1
(I1
tp904
g8
I00
S'\xc9*W\x91\xc8\x87\xb3\xbf'
p905
tp906
bsS'209'
p907
g31
(g32
(I0
tp908
g26
tp909
Rp910
(I1
(I1
tp911
g8
I00
S'\xb7)w2DaZ\xbf'
p912
tp913
bsS'148'
p914
g31
(g32
(I0
tp915
g26
tp916
Rp917
(I1
(I1
tp918
g8
I00
S']A\xbfI\x04\x13\x9a\xbf'
p919
tp920
bsS'149'
p921
g31
(g32
(I0
tp922
g26
tp923
Rp924
(I1
(I1
tp925
g8
I00
S'P\xf2pM\x1b\xcd\xc3?'
p926
tp927
bsS'76'
p928
g31
(g32
(I0
tp929
g26
tp930
Rp931
(I1
(I1
tp932
g8
I00
S'W\xbfN?(\xee\xc1\xbf'
p933
tp934
bsS'79'
p935
g31
(g32
(I0
tp936
g26
tp937
Rp938
(I1
(I1
tp939
g8
I00
S'n\x96\xfcM\x8f\xbf\xc6?'
p940
tp941
bsS'78'
p942
g31
(g32
(I0
tp943
g26
tp944
Rp945
(I1
(I1
tp946
g8
I00
S'X\xcem\x9f;\xd1\xbf\xbf'
p947
tp948
bsss.